target datalayout = "e-m:e-p270:32:32-p271:32:32-p272:64:64-i64:64-i128:128-f80:128-n8:16:32:64-S128"
target triple = "x86_64-pc-linux-gnu"

%struct.quic_obj_st = type { %struct.ssl_st, ptr, ptr, ptr, ptr, ptr, i64, i8 }
%struct.ssl_st = type { i32, ptr, ptr, ptr, %struct.CRYPTO_REF_COUNT, ptr, %struct.crypto_ex_data_st }
%struct.CRYPTO_REF_COUNT = type { i32 }
%struct.crypto_ex_data_st = type { ptr, ptr }

; Function Attrs: inlinehint nounwind uwtable
define internal ptr @ossl_quic_obj_get0_reactor(ptr noundef %0) #4 {
  %2 = alloca ptr, align 8
  store ptr %0, ptr %2, align 8, !tbaa !3
  %3 = load ptr, ptr %2, align 8, !tbaa !3
  %4 = call ptr @ossl_quic_obj_get0_engine(ptr noundef %3)
  %5 = call ptr @ossl_quic_engine_get0_reactor(ptr noundef %4)
  ret ptr %5
}

; Function Attrs: nounwind uwtable
define i32 @ossl_quic_obj_can_support_blocking(ptr noundef %0) #0 {
  %2 = alloca i32, align 4
  %3 = alloca ptr, align 8
  %4 = alloca ptr, align 8
  %5 = alloca i32, align 4
  store ptr %0, ptr %3, align 8, !tbaa !3
  call void @llvm.lifetime.start.p0(i64 8, ptr %4) #5
  %6 = load ptr, ptr %3, align 8, !tbaa !3
  %7 = call ptr @ossl_quic_obj_get0_reactor(ptr noundef %6)
  store ptr %7, ptr %4, align 8, !tbaa !78
  %8 = load ptr, ptr %3, align 8, !tbaa !3
  %9 = getelementptr inbounds nuw %struct.quic_obj_st, ptr %8, i32 0, i32 6
  %10 = load i64, ptr %9, align 8, !tbaa !57
  %11 = and i64 %10, 24
  %12 = icmp eq i64 %11, 0
  br i1 %12, label %13, label %14

13:                                               ; preds = %1
  store i32 0, ptr %2, align 4
  store i32 1, ptr %5, align 4
  br label %25

14:                                               ; preds = %1
  %15 = load ptr, ptr %4, align 8, !tbaa !78
  %16 = call i32 @ossl_quic_reactor_can_poll_r(ptr noundef %15)
  %17 = icmp ne i32 %16, 0
  br i1 %17, label %22, label %18

18:                                               ; preds = %14
  %19 = load ptr, ptr %4, align 8, !tbaa !78
  %20 = call i32 @ossl_quic_reactor_can_poll_w(ptr noundef %19)
  %21 = icmp ne i32 %20, 0
  br label %22

22:                                               ; preds = %18, %14
  %23 = phi i1 [ true, %14 ], [ %21, %18 ]
  %24 = zext i1 %23 to i32
  store i32 %24, ptr %2, align 4
  store i32 1, ptr %5, align 4
  br label %25

25:                                               ; preds = %22, %13
  call void @llvm.lifetime.end.p0(i64 8, ptr %4) #5
  %26 = load i32, ptr %2, align 4
  ret i32 %26
}

; Function Attrs: inlinehint nounwind uwtable
define internal ptr @ossl_quic_obj_get0_engine(ptr noundef %0) #4 {
  %2 = alloca ptr, align 8
  store ptr %0, ptr %2, align 8, !tbaa !3
  %3 = load ptr, ptr %2, align 8, !tbaa !3
  %4 = getelementptr inbounds nuw %struct.quic_obj_st, ptr %3, i32 0, i32 4
  %5 = load ptr, ptr %4, align 8, !tbaa !60
  ret ptr %5
}

; Function Attrs: nounwind uwtable
define i32 @ossl_quic_obj_desires_blocking(ptr noundef %0) #0 {
  %2 = alloca ptr, align 8
  %3 = alloca i32, align 4
  store ptr %0, ptr %2, align 8, !tbaa !3
  call void @llvm.lifetime.start.p0(i64 4, ptr %3) #5
  br label %4

4:                                                ; preds = %20, %1
  %5 = load ptr, ptr %2, align 8, !tbaa !3
  %6 = getelementptr inbounds nuw %struct.quic_obj_st, ptr %5, i32 0, i32 7
  %7 = load i8, ptr %6, align 8
  %8 = lshr i8 %7, 3
  %9 = and i8 %8, 3
  %10 = zext i8 %9 to i32
  store i32 %10, ptr %3, align 4, !tbaa !10
  %11 = icmp eq i32 %10, 0
  br i1 %11, label %12, label %17

12:                                               ; preds = %4
  %13 = load ptr, ptr %2, align 8, !tbaa !3
  %14 = getelementptr inbounds nuw %struct.quic_obj_st, ptr %13, i32 0, i32 1
  %15 = load ptr, ptr %14, align 8, !tbaa !59
  %16 = icmp ne ptr %15, null
  br label %17

17:                                               ; preds = %12, %4
  %18 = phi i1 [ false, %4 ], [ %16, %12 ]
  br i1 %18, label %19, label %24

19:                                               ; preds = %17
  br label %20

20:                                               ; preds = %19
  %21 = load ptr, ptr %2, align 8, !tbaa !3
  %22 = getelementptr inbounds nuw %struct.quic_obj_st, ptr %21, i32 0, i32 1
  %23 = load ptr, ptr %22, align 8, !tbaa !59
  store ptr %23, ptr %2, align 8, !tbaa !3
  br label %4, !llvm.loop !80

24:                                               ; preds = %17
  %25 = load i32, ptr %3, align 4, !tbaa !10
  %26 = icmp ne i32 %25, 1
  %27 = zext i1 %26 to i32
  call void @llvm.lifetime.end.p0(i64 4, ptr %3) #5
  ret i32 %27
}

; Function Attrs: nounwind uwtable
define i32 @ossl_quic_obj_blocking(ptr noundef %0) #0 {
  %2 = alloca i32, align 4
  %3 = alloca ptr, align 8
  store ptr %0, ptr %3, align 8, !tbaa !3
  %4 = load ptr, ptr %3, align 8, !tbaa !3
  %5 = call i32 @ossl_quic_obj_desires_blocking(ptr noundef %4)
  %6 = icmp ne i32 %5, 0
  br i1 %6, label %8, label %7

7:                                                ; preds = %1
  store i32 0, ptr %2, align 4
  br label %13

8:                                                ; preds = %1
  %9 = load ptr, ptr %3, align 8, !tbaa !3
  %10 = call ptr @ossl_quic_obj_get0_engine(ptr noundef %9)
  call void @ossl_quic_engine_update_poll_descriptors(ptr noundef %10, i32 noundef 0)
  %11 = load ptr, ptr %3, align 8, !tbaa !3
  %12 = call i32 @ossl_quic_obj_can_support_blocking(ptr noundef %11)
  store i32 %12, ptr %2, align 4
  br label %13

13:                                               ; preds = %8, %7
  %14 = load i32, ptr %2, align 4
  ret i32 %14
}