; Function Attrs: nounwind uwtable
define range(i32 0, 2) i32 @ossl_quic_obj_blocking(ptr noundef readonly captures(none) %0) local_unnamed_addr #0 {
  br label %2

2:                                                ; preds = %7, %1
  %.0.i = phi ptr [ %0, %1 ], [ %9, %7 ]
  %3 = getelementptr inbounds nuw i8, ptr %.0.i, i64 112
  %4 = load i8, ptr %3, align 8
  %5 = lshr i8 %4, 3
  %6 = and i8 %5, 3
  switch i8 %6, label %ossl_quic_obj_desires_blocking.exit.thread [
    i8 0, label %7
    i8 1, label %ossl_quic_obj_can_support_blocking.exit
  ]

7:                                                ; preds = %2
  %8 = getelementptr inbounds nuw i8, ptr %.0.i, i64 64
  %9 = load ptr, ptr %8, align 8, !tbaa !53
  %.not.i = icmp eq ptr %9, null
  br i1 %.not.i, label %ossl_quic_obj_desires_blocking.exit.thread, label %2, !llvm.loop !74

ossl_quic_obj_desires_blocking.exit.thread:       ; preds = %2, %7
  %10 = getelementptr i8, ptr %0, i64 88
  %.val = load ptr, ptr %10, align 8, !tbaa !54
  tail call void @ossl_quic_engine_update_poll_descriptors(ptr noundef %.val, i32 noundef 0) #5
  %.val.i = load ptr, ptr %10, align 8, !tbaa !54
  %11 = tail call ptr @ossl_quic_engine_get0_reactor(ptr noundef %.val.i) #5
  %12 = getelementptr inbounds nuw i8, ptr %0, i64 104
  %13 = load i64, ptr %12, align 8, !tbaa !48
  %14 = and i64 %13, 24
  %15 = icmp eq i64 %14, 0
  br i1 %15, label %ossl_quic_obj_can_support_blocking.exit, label %16

16:                                               ; preds = %ossl_quic_obj_desires_blocking.exit.thread
  %17 = tail call i32 @ossl_quic_reactor_can_poll_r(ptr noundef %11) #5
  %.not.i3 = icmp eq i32 %17, 0
  br i1 %.not.i3, label %18, label %ossl_quic_obj_can_support_blocking.exit

18:                                               ; preds = %16
  %19 = tail call i32 @ossl_quic_reactor_can_poll_w(ptr noundef %11) #5
  %20 = icmp ne i32 %19, 0
  %21 = zext i1 %20 to i32
  br label %ossl_quic_obj_can_support_blocking.exit

ossl_quic_obj_can_support_blocking.exit:          ; preds = %2, %18, %16, %ossl_quic_obj_desires_blocking.exit.thread
  %.0 = phi i32 [ 0, %ossl_quic_obj_desires_blocking.exit.thread ], [ 1, %16 ], [ %21, %18 ], [ 0, %2 ]
  ret i32 %.0
}